target datalayout = "e-m:e-p270:32:32-p271:32:32-p272:64:64-i64:64-i128:128-f80:128-n8:16:32:64-S128"
target triple = "x86_64-pc-linux-gnu"

%"struct.icu_77::ChineseCalendar::Setting" = type { i32, ptr, ptr, ptr }
%"class.icu_77::CalendarAstronomer" = type <{ double, double, double, double, double, %"class.icu_77::CalendarAstronomer::Equatorial", i8, [7 x i8] }>
%"class.icu_77::CalendarAstronomer::Equatorial" = type { double, double }

; Function Attrs: mustprogress uwtable
define internal noundef double @_ZN6icu_7712_GLOBAL__N_112daysToMillisEPKNS_8TimeZoneEdR10UErrorCode(ptr noundef %0, double noundef %1, ptr noundef nonnull align 4 dereferenceable(4) %2) #0 {
  %4 = alloca double, align 8
  %5 = alloca ptr, align 8
  %6 = alloca double, align 8
  %7 = alloca ptr, align 8
  %8 = alloca double, align 8
  %9 = alloca i32, align 4
  %10 = alloca i32, align 4
  %11 = alloca i32, align 4
  store ptr %0, ptr %5, align 8, !tbaa !46
  store double %1, ptr %6, align 8, !tbaa !47
  store ptr %2, ptr %7, align 8, !tbaa !10
  %12 = load ptr, ptr %7, align 8, !tbaa !10
  %13 = load i32, ptr %12, align 4, !tbaa !30
  %14 = call noundef signext i8 @_ZL9U_FAILURE10UErrorCode(i32 noundef %13)
  %15 = icmp ne i8 %14, 0
  br i1 %15, label %16, label %17

16:                                               ; preds = %3
  store double 0.000000e+00, ptr %4, align 8
  br label %46

17:                                               ; preds = %3
  call void @llvm.lifetime.start.p0(i64 8, ptr %8) #13
  %18 = load double, ptr %6, align 8, !tbaa !47
  %19 = fmul double %18, 8.640000e+07
  store double %19, ptr %8, align 8, !tbaa !47
  %20 = load ptr, ptr %5, align 8, !tbaa !46
  %21 = icmp ne ptr %20, null
  br i1 %21, label %22, label %42

22:                                               ; preds = %17
  call void @llvm.lifetime.start.p0(i64 4, ptr %9) #13
  call void @llvm.lifetime.start.p0(i64 4, ptr %10) #13
  %23 = load ptr, ptr %5, align 8, !tbaa !46
  %24 = load double, ptr %8, align 8, !tbaa !47
  %25 = load ptr, ptr %7, align 8, !tbaa !10
  %26 = load ptr, ptr %23, align 8, !tbaa !11
  %27 = getelementptr inbounds ptr, ptr %26, i64 6
  %28 = load ptr, ptr %27, align 8
  call void %28(ptr noundef nonnull align 8 dereferenceable(72) %23, double noundef %24, i8 noundef signext 0, ptr noundef nonnull align 4 dereferenceable(4) %9, ptr noundef nonnull align 4 dereferenceable(4) %10, ptr noundef nonnull align 4 dereferenceable(4) %25)
  %29 = load ptr, ptr %7, align 8, !tbaa !10
  %30 = load i32, ptr %29, align 4, !tbaa !30
  %31 = call noundef signext i8 @_ZL9U_FAILURE10UErrorCode(i32 noundef %30)
  %32 = icmp ne i8 %31, 0
  br i1 %32, label %33, label %34

33:                                               ; preds = %22
  store double 0.000000e+00, ptr %4, align 8
  store i32 1, ptr %11, align 4
  br label %41

34:                                               ; preds = %22
  %35 = load double, ptr %8, align 8, !tbaa !47
  %36 = load i32, ptr %9, align 4, !tbaa !29
  %37 = load i32, ptr %10, align 4, !tbaa !29
  %38 = add nsw i32 %36, %37
  %39 = sitofp i32 %38 to double
  %40 = fsub double %35, %39
  store double %40, ptr %4, align 8
  store i32 1, ptr %11, align 4
  br label %41

41:                                               ; preds = %34, %33
  call void @llvm.lifetime.end.p0(i64 4, ptr %10) #13
  call void @llvm.lifetime.end.p0(i64 4, ptr %9) #13
  br label %45

42:                                               ; preds = %17
  %43 = load double, ptr %8, align 8, !tbaa !47
  %44 = fsub double %43, 2.880000e+07
  store double %44, ptr %4, align 8
  store i32 1, ptr %11, align 4
  br label %45

45:                                               ; preds = %42, %41
  call void @llvm.lifetime.end.p0(i64 8, ptr %8) #13
  br label %46

46:                                               ; preds = %45, %16
  %47 = load double, ptr %4, align 8
  ret double %47
}

; Function Attrs: inlinehint mustprogress nounwind uwtable
define internal noundef signext i8 @_ZL9U_FAILURE10UErrorCode(i32 noundef %0) #4 {
  %2 = alloca i32, align 4
  store i32 %0, ptr %2, align 4, !tbaa !30
  %3 = load i32, ptr %2, align 4, !tbaa !30
  %4 = icmp sgt i32 %3, 0
  %5 = zext i1 %4 to i8
  ret i8 %5
}

; Function Attrs: mustprogress uwtable
define internal noundef i32 @_ZN6icu_7712_GLOBAL__N_114winterSolsticeERKNS_15ChineseCalendar7SettingEiR10UErrorCode(ptr noundef nonnull align 8 dereferenceable(32) %0, i32 noundef %1, ptr noundef nonnull align 4 dereferenceable(4) %2) #0 personality ptr @__gxx_personality_v0 {
  %4 = alloca i32, align 4
  %5 = alloca ptr, align 8
  %6 = alloca i32, align 4
  %7 = alloca ptr, align 8
  %8 = alloca ptr, align 8
  %9 = alloca i32, align 4
  %10 = alloca i32, align 4
  %11 = alloca double, align 8
  %12 = alloca double, align 8
  %13 = alloca %"class.icu_77::CalendarAstronomer", align 8
  %14 = alloca ptr, align 8
  %15 = alloca i32, align 4
  store ptr %0, ptr %5, align 8, !tbaa !48
  store i32 %1, ptr %6, align 4, !tbaa !29
  store ptr %2, ptr %7, align 8, !tbaa !10
  %16 = load ptr, ptr %7, align 8, !tbaa !10
  %17 = load i32, ptr %16, align 4, !tbaa !30
  %18 = call noundef signext i8 @_ZL9U_FAILURE10UErrorCode(i32 noundef %17)
  %19 = icmp ne i8 %18, 0
  br i1 %19, label %20, label %21

20:                                               ; preds = %3
  store i32 0, ptr %4, align 4
  br label %100

21:                                               ; preds = %3
  call void @llvm.lifetime.start.p0(i64 8, ptr %8) #13
  %22 = load ptr, ptr %5, align 8, !tbaa !48
  %23 = getelementptr inbounds nuw %"struct.icu_77::ChineseCalendar::Setting", ptr %22, i32 0, i32 1
  %24 = load ptr, ptr %23, align 8, !tbaa !42
  store ptr %24, ptr %8, align 8, !tbaa !46
  call void @llvm.lifetime.start.p0(i64 4, ptr %9) #13
  %25 = load ptr, ptr %5, align 8, !tbaa !48
  %26 = getelementptr inbounds nuw %"struct.icu_77::ChineseCalendar::Setting", ptr %25, i32 0, i32 2
  %27 = load ptr, ptr %26, align 8, !tbaa !74
  %28 = load i32, ptr %6, align 4, !tbaa !29
  %29 = load ptr, ptr %7, align 8, !tbaa !10
  %30 = call noundef i32 @_ZN6icu_7713CalendarCache3getEPPS0_iR10UErrorCode(ptr noundef %27, i32 noundef %28, ptr noundef nonnull align 4 dereferenceable(4) %29)
  store i32 %30, ptr %9, align 4, !tbaa !29
  %31 = load ptr, ptr %7, align 8, !tbaa !10
  %32 = load i32, ptr %31, align 4, !tbaa !30
  %33 = call noundef signext i8 @_ZL9U_FAILURE10UErrorCode(i32 noundef %32)
  %34 = icmp ne i8 %33, 0
  br i1 %34, label %35, label %36

35:                                               ; preds = %21
  store i32 0, ptr %4, align 4
  store i32 1, ptr %10, align 4
  br label %99

36:                                               ; preds = %21
  %37 = load i32, ptr %9, align 4, !tbaa !29
  %38 = icmp eq i32 %37, 0
  br i1 %38, label %39, label %91

39:                                               ; preds = %36
  call void @llvm.lifetime.start.p0(i64 8, ptr %11) #13
  %40 = load ptr, ptr %8, align 8, !tbaa !46
  %41 = load i32, ptr %6, align 4, !tbaa !29
  %42 = call noundef i64 @_ZN6icu_775Grego11fieldsToDayEiii(i32 noundef %41, i32 noundef 11, i32 noundef 1)
  %43 = sitofp i64 %42 to double
  %44 = load ptr, ptr %7, align 8, !tbaa !10
  %45 = call noundef double @_ZN6icu_7712_GLOBAL__N_112daysToMillisEPKNS_8TimeZoneEdR10UErrorCode(ptr noundef %40, double noundef %43, ptr noundef nonnull align 4 dereferenceable(4) %44)
  store double %45, ptr %11, align 8, !tbaa !47
  %46 = load ptr, ptr %7, align 8, !tbaa !10
  %47 = load i32, ptr %46, align 4, !tbaa !30
  %48 = call noundef signext i8 @_ZL9U_FAILURE10UErrorCode(i32 noundef %47)
  %49 = icmp ne i8 %48, 0
  br i1 %49, label %50, label %51

50:                                               ; preds = %39
  store i32 0, ptr %4, align 4
  store i32 1, ptr %10, align 4
  br label %88

51:                                               ; preds = %39
  call void @llvm.lifetime.start.p0(i64 8, ptr %12) #13
  %52 = load ptr, ptr %8, align 8, !tbaa !46
  call void @llvm.lifetime.start.p0(i64 64, ptr %13) #13
  %53 = load double, ptr %11, align 8, !tbaa !47
  call void @_ZN6icu_7718CalendarAstronomerC1Ed(ptr noundef nonnull align 8 dereferenceable(57) %13, double noundef %53)
  %54 = invoke noundef double @_ZN6icu_7718CalendarAstronomer15WINTER_SOLSTICEEv()
          to label %55 unwind label %66

55:                                               ; preds = %51
  %56 = invoke noundef double @_ZN6icu_7718CalendarAstronomer10getSunTimeEda(ptr noundef nonnull align 8 dereferenceable(57) %13, double noundef %54, i8 noundef signext 1)
          to label %57 unwind label %66

57:                                               ; preds = %55
  %58 = load ptr, ptr %7, align 8, !tbaa !10
  %59 = invoke noundef double @_ZN6icu_7712_GLOBAL__N_112millisToDaysEPKNS_8TimeZoneEdR10UErrorCode(ptr noundef %52, double noundef %56, ptr noundef nonnull align 4 dereferenceable(4) %58)
          to label %60 unwind label %66

60:                                               ; preds = %57
  call void @_ZN6icu_7718CalendarAstronomerD1Ev(ptr noundef nonnull align 8 dereferenceable(57) %13) #13
  call void @llvm.lifetime.end.p0(i64 64, ptr %13) #13
  store double %59, ptr %12, align 8, !tbaa !47
  %61 = load ptr, ptr %7, align 8, !tbaa !10
  %62 = load i32, ptr %61, align 4, !tbaa !30
  %63 = call noundef signext i8 @_ZL9U_FAILURE10UErrorCode(i32 noundef %62)
  %64 = icmp ne i8 %63, 0
  br i1 %64, label %65, label %70

65:                                               ; preds = %60
  store i32 0, ptr %4, align 4
  store i32 1, ptr %10, align 4
  br label %87

66:                                               ; preds = %57, %55, %51
  %67 = landingpad { ptr, i32 }
          cleanup
  %68 = extractvalue { ptr, i32 } %67, 0
  store ptr %68, ptr %14, align 8
  %69 = extractvalue { ptr, i32 } %67, 1
  store i32 %69, ptr %15, align 4
  call void @_ZN6icu_7718CalendarAstronomerD1Ev(ptr noundef nonnull align 8 dereferenceable(57) %13) #13
  call void @llvm.lifetime.end.p0(i64 64, ptr %13) #13
  call void @llvm.lifetime.end.p0(i64 8, ptr %12) #13
  call void @llvm.lifetime.end.p0(i64 8, ptr %11) #13
  call void @llvm.lifetime.end.p0(i64 4, ptr %9) #13
  call void @llvm.lifetime.end.p0(i64 8, ptr %8) #13
  br label %102

70:                                               ; preds = %60
  %71 = load double, ptr %12, align 8, !tbaa !47
  %72 = fcmp olt double %71, 0xC1E0000000000000
  br i1 %72, label %76, label %73

73:                                               ; preds = %70
  %74 = load double, ptr %12, align 8, !tbaa !47
  %75 = fcmp ogt double %74, 0x41DFFFFFFFC00000
  br i1 %75, label %76, label %78

76:                                               ; preds = %73, %70
  %77 = load ptr, ptr %7, align 8, !tbaa !10
  store i32 1, ptr %77, align 4, !tbaa !30
  store i32 0, ptr %4, align 4
  store i32 1, ptr %10, align 4
  br label %87

78:                                               ; preds = %73
  %79 = load double, ptr %12, align 8, !tbaa !47
  %80 = fptosi double %79 to i32
  store i32 %80, ptr %9, align 4, !tbaa !29
  %81 = load ptr, ptr %5, align 8, !tbaa !48
  %82 = getelementptr inbounds nuw %"struct.icu_77::ChineseCalendar::Setting", ptr %81, i32 0, i32 2
  %83 = load ptr, ptr %82, align 8, !tbaa !74
  %84 = load i32, ptr %6, align 4, !tbaa !29
  %85 = load i32, ptr %9, align 4, !tbaa !29
  %86 = load ptr, ptr %7, align 8, !tbaa !10
  call void @_ZN6icu_7713CalendarCache3putEPPS0_iiR10UErrorCode(ptr noundef %83, i32 noundef %84, i32 noundef %85, ptr noundef nonnull align 4 dereferenceable(4) %86)
  store i32 0, ptr %10, align 4
  br label %87

87:                                               ; preds = %78, %76, %65
  call void @llvm.lifetime.end.p0(i64 8, ptr %12) #13
  br label %88

88:                                               ; preds = %87, %50
  call void @llvm.lifetime.end.p0(i64 8, ptr %11) #13
  %89 = load i32, ptr %10, align 4
  switch i32 %89, label %99 [
    i32 0, label %90
  ]

90:                                               ; preds = %88
  br label %91

91:                                               ; preds = %90, %36
  %92 = load ptr, ptr %7, align 8, !tbaa !10
  %93 = load i32, ptr %92, align 4, !tbaa !30
  %94 = call noundef signext i8 @_ZL9U_FAILURE10UErrorCode(i32 noundef %93)
  %95 = icmp ne i8 %94, 0
  br i1 %95, label %96, label %97

96:                                               ; preds = %91
  store i32 0, ptr %9, align 4, !tbaa !29
  br label %97

97:                                               ; preds = %96, %91
  %98 = load i32, ptr %9, align 4, !tbaa !29
  store i32 %98, ptr %4, align 4
  store i32 1, ptr %10, align 4
  br label %99

99:                                               ; preds = %97, %88, %35
  call void @llvm.lifetime.end.p0(i64 4, ptr %9) #13
  call void @llvm.lifetime.end.p0(i64 8, ptr %8) #13
  br label %100

100:                                              ; preds = %99, %20
  %101 = load i32, ptr %4, align 4
  ret i32 %101

102:                                              ; preds = %66
  %103 = load ptr, ptr %14, align 8
  %104 = load i32, ptr %15, align 4
  %105 = insertvalue { ptr, i32 } poison, ptr %103, 0
  %106 = insertvalue { ptr, i32 } %105, i32 %104, 1
  resume { ptr, i32 } %106
}