; Function Attrs: mustprogress uwtable
define internal fastcc noundef i32 @_ZN6icu_7712_GLOBAL__N_114winterSolsticeERKNS_15ChineseCalendar7SettingEiR10UErrorCode(ptr noundef nonnull readonly align 8 captures(none) dereferenceable(32) %0, i32 noundef %1, ptr noundef nonnull align 4 dereferenceable(4) %2) unnamed_addr #0 personality ptr @__gxx_personality_v0 {
  %4 = alloca i32, align 4
  %5 = alloca i32, align 4
  %6 = alloca %"class.icu_77::CalendarAstronomer", align 8
  %7 = load i32, ptr %2, align 4, !tbaa !21
  %8 = icmp slt i32 %7, 1
  br i1 %8, label %9, label %.thread

9:                                                ; preds = %3
  %10 = getelementptr inbounds nuw i8, ptr %0, i64 8
  %11 = load ptr, ptr %10, align 8, !tbaa !28
  %12 = getelementptr inbounds nuw i8, ptr %0, i64 16
  %13 = load ptr, ptr %12, align 8, !tbaa !43
  %14 = tail call noundef i32 @_ZN6icu_7713CalendarCache3getEPPS0_iR10UErrorCode(ptr noundef %13, i32 noundef %1, ptr noundef nonnull align 4 dereferenceable(4) %2)
  %15 = load i32, ptr %2, align 4, !tbaa !21
  %16 = icmp slt i32 %15, 1
  br i1 %16, label %17, label %.thread

17:                                               ; preds = %9
  %18 = icmp eq i32 %14, 0
  br i1 %18, label %19, label %.thread

19:                                               ; preds = %17
  %20 = tail call noundef i64 @_ZN6icu_775Grego11fieldsToDayEiii(i32 noundef %1, i32 noundef 11, i32 noundef 1)
  %21 = load i32, ptr %2, align 4, !tbaa !21
  %22 = icmp slt i32 %21, 1
  br i1 %22, label %23, label %.thread

23:                                               ; preds = %19
  %24 = sitofp i64 %20 to double
  %25 = fmul double %24, 8.640000e+07
  %.not11.i = icmp eq ptr %11, null
  br i1 %.not11.i, label %_ZN6icu_7712_GLOBAL__N_112daysToMillisEPKNS_8TimeZoneEdR10UErrorCode.exit.thread, label %26

26:                                               ; preds = %23
  call void @llvm.lifetime.start.p0(i64 4, ptr nonnull %4) #8
  call void @llvm.lifetime.start.p0(i64 4, ptr nonnull %5) #8
  %27 = load ptr, ptr %11, align 8, !tbaa !3
  %28 = getelementptr inbounds nuw i8, ptr %27, i64 48
  %29 = load ptr, ptr %28, align 8
  call void %29(ptr noundef nonnull align 8 dereferenceable(72) %11, double noundef %25, i8 noundef signext 0, ptr noundef nonnull align 4 dereferenceable(4) %4, ptr noundef nonnull align 4 dereferenceable(4) %5, ptr noundef nonnull align 4 dereferenceable(4) %2)
  %30 = load i32, ptr %2, align 4, !tbaa !21
  %31 = icmp slt i32 %30, 1
  br i1 %31, label %_ZN6icu_7712_GLOBAL__N_112daysToMillisEPKNS_8TimeZoneEdR10UErrorCode.exit.thread48, label %_ZN6icu_7712_GLOBAL__N_112daysToMillisEPKNS_8TimeZoneEdR10UErrorCode.exit

_ZN6icu_7712_GLOBAL__N_112daysToMillisEPKNS_8TimeZoneEdR10UErrorCode.exit.thread48: ; preds = %26
  %32 = load i32, ptr %4, align 4, !tbaa !20
  %33 = load i32, ptr %5, align 4, !tbaa !20
  %34 = add nsw i32 %33, %32
  %35 = sitofp i32 %34 to double
  %36 = fsub double %25, %35
  call void @llvm.lifetime.end.p0(i64 4, ptr nonnull %5) #8
  call void @llvm.lifetime.end.p0(i64 4, ptr nonnull %4) #8
  br label %38

_ZN6icu_7712_GLOBAL__N_112daysToMillisEPKNS_8TimeZoneEdR10UErrorCode.exit.thread: ; preds = %23
  %37 = fadd double %25, -2.880000e+07
  br label %38

_ZN6icu_7712_GLOBAL__N_112daysToMillisEPKNS_8TimeZoneEdR10UErrorCode.exit: ; preds = %26
  call void @llvm.lifetime.end.p0(i64 4, ptr nonnull %5) #8
  call void @llvm.lifetime.end.p0(i64 4, ptr nonnull %4) #8
  br label %.thread

38:                                               ; preds = %_ZN6icu_7712_GLOBAL__N_112daysToMillisEPKNS_8TimeZoneEdR10UErrorCode.exit.thread48, %_ZN6icu_7712_GLOBAL__N_112daysToMillisEPKNS_8TimeZoneEdR10UErrorCode.exit.thread
  %.0.i45 = phi double [ %37, %_ZN6icu_7712_GLOBAL__N_112daysToMillisEPKNS_8TimeZoneEdR10UErrorCode.exit.thread ], [ %36, %_ZN6icu_7712_GLOBAL__N_112daysToMillisEPKNS_8TimeZoneEdR10UErrorCode.exit.thread48 ]
  call void @llvm.lifetime.start.p0(i64 64, ptr nonnull %6) #8
  call void @_ZN6icu_7718CalendarAstronomerC1Ed(ptr noundef nonnull align 8 dereferenceable(57) %6, double noundef %.0.i45)
  %39 = invoke noundef double @_ZN6icu_7718CalendarAstronomer15WINTER_SOLSTICEEv()
          to label %40 unwind label %47

40:                                               ; preds = %38
  %41 = invoke noundef double @_ZN6icu_7718CalendarAstronomer10getSunTimeEda(ptr noundef nonnull align 8 dereferenceable(57) %6, double noundef %39, i8 noundef signext 1)
          to label %42 unwind label %47

42:                                               ; preds = %40
  %43 = invoke fastcc noundef double @_ZN6icu_7712_GLOBAL__N_112millisToDaysEPKNS_8TimeZoneEdR10UErrorCode(ptr noundef %11, double noundef %41, ptr noundef nonnull align 4 dereferenceable(4) %2)
          to label %44 unwind label %47

44:                                               ; preds = %42
  call void @_ZN6icu_7718CalendarAstronomerD1Ev(ptr noundef nonnull align 8 dereferenceable(57) %6) #8
  call void @llvm.lifetime.end.p0(i64 64, ptr nonnull %6) #8
  %45 = load i32, ptr %2, align 4, !tbaa !21
  %46 = icmp slt i32 %45, 1
  br i1 %46, label %49, label %.thread

47:                                               ; preds = %42, %40, %38
  %48 = landingpad { ptr, i32 }
          cleanup
  call void @_ZN6icu_7718CalendarAstronomerD1Ev(ptr noundef nonnull align 8 dereferenceable(57) %6) #8
  call void @llvm.lifetime.end.p0(i64 64, ptr nonnull %6) #8
  resume { ptr, i32 } %48

49:                                               ; preds = %44
  %50 = fcmp olt double %43, 0xC1E0000000000000
  %51 = fcmp ogt double %43, 0x41DFFFFFFFC00000
  %or.cond = or i1 %50, %51
  br i1 %or.cond, label %52, label %53

52:                                               ; preds = %49
  store i32 1, ptr %2, align 4, !tbaa !21
  br label %.thread

53:                                               ; preds = %49
  %54 = fptosi double %43 to i32
  %55 = load ptr, ptr %12, align 8, !tbaa !43
  call void @_ZN6icu_7713CalendarCache3putEPPS0_iiR10UErrorCode(ptr noundef %55, i32 noundef %1, i32 noundef %54, ptr noundef nonnull align 4 dereferenceable(4) %2)
  %.pre = load i32, ptr %2, align 4, !tbaa !21
  %56 = icmp sgt i32 %.pre, 0
  %57 = select i1 %56, i32 0, i32 %54
  br label %.thread

.thread:                                          ; preds = %19, %17, %53, %_ZN6icu_7712_GLOBAL__N_112daysToMillisEPKNS_8TimeZoneEdR10UErrorCode.exit, %44, %52, %9, %3
  %.0 = phi i32 [ 0, %3 ], [ 0, %9 ], [ 0, %_ZN6icu_7712_GLOBAL__N_112daysToMillisEPKNS_8TimeZoneEdR10UErrorCode.exit ], [ 0, %52 ], [ 0, %44 ], [ %57, %53 ], [ %14, %17 ], [ 0, %19 ]
  ret i32 %.0
}